; Function Attrs: mustprogress uwtable
define void @_ZN6icu_777Package11removeItemsEPKc(ptr noundef nonnull align 8 captures(none) dereferenceable(201237) %0, ptr noundef %1) local_unnamed_addr #13 align 2 {
  tail call void @_ZN6icu_777Package9findItemsEPKc(ptr noundef nonnull align 8 dereferenceable(201237) %0, ptr noundef %1)
  %3 = tail call noundef i32 @_ZN6icu_777Package12findNextItemEv(ptr noundef nonnull align 8 dereferenceable(201237) %0)
  %4 = icmp sgt i32 %3, -1
  br i1 %4, label %.lr.ph, label %._crit_edge

.lr.ph:                                           ; preds = %2
  %5 = getelementptr inbounds nuw i8, ptr %0, i64 1184
  %6 = getelementptr inbounds nuw i8, ptr %0, i64 1172
  %7 = getelementptr inbounds nuw i8, ptr %0, i64 201232
  br label %8

8:                                                ; preds = %.lr.ph, %_ZN6icu_777Package10removeItemEi.exit
  %9 = phi i32 [ %3, %.lr.ph ], [ %35, %_ZN6icu_777Package10removeItemEi.exit ]
  %10 = load ptr, ptr %5, align 8, !tbaa !30
  %11 = zext nneg i32 %9 to i64
  %12 = getelementptr inbounds nuw %"struct.icu_77::Item", ptr %10, i64 %11
  %13 = getelementptr inbounds nuw i8, ptr %12, i64 20
  %14 = load i8, ptr %13, align 4, !tbaa !31
  %.not.i = icmp eq i8 %14, 0
  br i1 %.not.i, label %18, label %15

15:                                               ; preds = %8
  %16 = getelementptr inbounds nuw i8, ptr %12, i64 8
  %17 = load ptr, ptr %16, align 8, !tbaa !33
  tail call void @uprv_free_77(ptr noundef %17)
  br label %18

18:                                               ; preds = %15, %8
  %19 = add nuw nsw i32 %9, 1
  %20 = load i32, ptr %6, align 4, !tbaa !29
  %21 = icmp slt i32 %19, %20
  br i1 %21, label %22, label %29

22:                                               ; preds = %18
  %23 = load ptr, ptr %5, align 8, !tbaa !30
  %24 = getelementptr inbounds nuw %"struct.icu_77::Item", ptr %23, i64 %11
  %25 = getelementptr inbounds nuw i8, ptr %24, i64 24
  %26 = sub nsw i32 %20, %19
  %27 = sext i32 %26 to i64
  %28 = mul nsw i64 %27, 24
  tail call void @llvm.memmove.p0.p0.i64(ptr align 8 %24, ptr nonnull align 8 %25, i64 %28, i1 false)
  %.pre.i = load i32, ptr %6, align 4, !tbaa !29
  br label %29

29:                                               ; preds = %22, %18
  %30 = phi i32 [ %.pre.i, %22 ], [ %20, %18 ]
  %31 = add nsw i32 %30, -1
  store i32 %31, ptr %6, align 4, !tbaa !29
  %32 = load i32, ptr %7, align 8, !tbaa !27
  %.not11.i = icmp sgt i32 %9, %32
  br i1 %.not11.i, label %_ZN6icu_777Package10removeItemEi.exit, label %33

33:                                               ; preds = %29
  %34 = add nsw i32 %32, -1
  store i32 %34, ptr %7, align 8, !tbaa !27
  br label %_ZN6icu_777Package10removeItemEi.exit

_ZN6icu_777Package10removeItemEi.exit:            ; preds = %29, %33
  %35 = tail call noundef i32 @_ZN6icu_777Package12findNextItemEv(ptr noundef nonnull align 8 dereferenceable(201237) %0)
  %36 = icmp sgt i32 %35, -1
  br i1 %36, label %8, label %._crit_edge, !llvm.loop !75

._crit_edge:                                      ; preds = %_ZN6icu_777Package10removeItemEi.exit, %2
  ret void
}